Certificate:
    Data:
        Version: 3 (0x2)
        Serial Number: 0 (0x0)
        Signature Algorithm: sha256WithRSAEncryption
        Issuer: C=AU, ST=Some-State, O=Internet Widgits Pty Ltd, CN=oreoreca
        Validity
            Not Before: Jul 16 06:06:17 2022 GMT
            Not After : Oct 18 06:06:17 2024 GMT
        Subject: C=AU, ST=Some-State, O=Internet Widgits Pty Ltd, CN=www.oreoreweb.com
        Subject Public Key Info:
            Public Key Algorithm: rsaEncryption
                RSA Public-Key: (2048 bit)
                Modulus:
                    00:b0:59:4c:a0:da:9d:55:bc:ba:26:bf:87:8e:2a:
                    9b:82:c7:7d:48:71:cf:ea:ca:c5:f1:fc:47:f7:83:
                    3e:ed:f7:a4:b3:d1:f3:be:fd:41:bc:43:af:5b:5d:
                    70:6a:17:10:a8:1e:47:9e:4e:d0:ee:b5:fb:6d:f5:
                    ee:54:e1:26:7b:16:79:9d:3f:88:a1:d8:1c:d0:10:
                    d6:76:94:41:e1:b7:95:f2:4a:bd:77:e8:08:23:c2:
                    47:a6:b5:39:8a:8b:f1:91:eb:f5:24:8a:c2:64:05:
                    c1:99:15:9f:10:94:3f:1d:43:f5:f7:13:40:15:db:
                    48:b0:32:38:d8:44:1f:53:a7:b5:c8:48:3b:0d:cf:
                    a1:81:5a:c1:5d:61:47:e3:dd:96:64:96:c6:e7:51:
                    0a:80:57:de:ba:19:8f:a0:c6:42:d7:a1:cf:23:aa:
                    ba:85:02:b8:a8:8f:17:39:11:bf:06:53:0f:ce:97:
                    73:42:fe:22:87:70:f5:7c:ba:91:9a:86:54:7d:e2:
                    c9:54:7d:d5:1c:b4:da:f1:bc:0f:9e:eb:a3:c4:ca:
                    89:08:89:a8:49:48:e5:34:c5:bc:24:e8:99:c0:95:
                    a3:16:72:27:8e:fa:ac:d6:48:8f:5c:62:79:2a:44:
                    7b:99:68:ea:24:d9:5b:3b:9e:3a:2d:7b:a4:30:c7:
                    65:83
                Exponent: 65537 (0x10001)
        X509v3 extensions:
            X509v3 Subject Alternative Name: 
                DNS:www.oreoreweb.com
    Signature Algorithm: sha256WithRSAEncryption
         9c:8a:8f:70:bb:99:0a:ab:b2:f8:16:ef:c8:3a:07:92:a5:6c:
         2b:29:ec:7d:1d:4d:91:dd:a5:ed:06:83:ec:6a:37:d4:ed:0e:
         05:8a:c0:70:f4:93:ed:28:09:01:58:38:6f:6a:07:b5:e2:57:
         d0:2a:be:55:2c:ef:e3:a1:5a:54:15:b9:6d:1e:c1:2d:38:f6:
         f7:c6:a1:c0:26:a8:57:69:36:80:68:89:98:07:f1:80:e1:c8:
         c5:e8:65:a2:9d:b5:50:88:1c:29:52:95:83:80:4e:56:cd:49:
         2a:e0:bd:4c:56:cb:92:97:44:8b:91:0d:bb:aa:5e:d2:a7:e3:
         11:40:60:80:72:ca:ba:53:bb:12:93:65:33:bd:69:68:43:68:
         77:5a:44:aa:b7:55:8f:4e:3e:41:f7:8c:a0:13:27:11:69:3c:
         ea:be:f7:2b:01:9c:9c:78:fa:5a:47:36:75:a4:9b:48:88:c7:
         78:87:00:75:3c:40:48:ba:22:d5:d7:84:4f:b9:6a:78:12:07:
         bb:3d:24:13:38:9e:12:17:02:6e:20:c3:38:d0:18:c8:30:14:
         23:a6:85:a3:47:bf:31:22:d7:bc:b5:41:20:e2:d1:89:09:5c:
         73:36:e7:08:f8:d4:82:4f:51:c3:b0:25:4a:0c:c6:4f:ea:d5:
         2f:20:f8:17
-----BEGIN CERTIFICATE-----
MIIDVDCCAjygAwIBAgIBADANBgkqhkiG9w0BAQsFADBYMQswCQYDVQQGEwJBVTET
MBEGA1UECAwKU29tZS1TdGF0ZTEhMB8GA1UECgwYSW50ZXJuZXQgV2lkZ2l0cyBQ
dHkgTHRkMREwDwYDVQQDDAhvcmVvcmVjYTAeFw0yMjA3MTYwNjA2MTdaFw0yNDEw
MTgwNjA2MTdaMGExCzAJBgNVBAYTAkFVMRMwEQYDVQQIDApTb21lLVN0YXRlMSEw
HwYDVQQKDBhJbnRlcm5ldCBXaWRnaXRzIFB0eSBMdGQxGjAYBgNVBAMMEXd3dy5v
cmVvcmV3ZWIuY29tMIIBIjANBgkqhkiG9w0BAQEFAAOCAQ8AMIIBCgKCAQEAsFlM
oNqdVby6Jr+Hjiqbgsd9SHHP6srF8fxH94M+7feks9Hzvv1BvEOvW11wahcQqB5H
nk7Q7rX7bfXuVOEmexZ5nT+Iodgc0BDWdpRB4beV8kq9d+gII8JHprU5iovxkev1
JIrCZAXBmRWfEJQ/HUP19xNAFdtIsDI42EQfU6e1yEg7Dc+hgVrBXWFH492WZJbG
51EKgFfeuhmPoMZC16HPI6q6hQK4qI8XORG/BlMPzpdzQv4ih3D1fLqRmoZUfeLJ
VH3VHLTa8bwPnuujxMqJCImoSUjlNMW8JOiZwJWjFnInjvqs1kiPXGJ5KkR7mWjq
JNlbO546LXukMMdlgwIDAQABoyAwHjAcBgNVHREEFTATghF3d3cub3Jlb3Jld2Vi
LmNvbTANBgkqhkiG9w0BAQsFAAOCAQEAnIqPcLuZCquy+BbvyDoHkqVsKynsfR1N
kd2l7QaD7Go31O0OBYrAcPST7SgJAVg4b2oHteJX0Cq+VSzv46FaVBW5bR7BLTj2
98ahwCaoV2k2gGiJmAfxgOHIxehlop21UIgcKVKVg4BOVs1JKuC9TFbLkpdEi5EN
u6pe0qfjEUBggHLKulO7EpNlM71paENod1pEqrdVj04+QfeMoBMnEWk86r73KwGc
nHj6Wkc2daSbSIjHeIcAdTxASLoi1deET7lqeBIHuz0kEzieEhcCbiDDONAYyDAU
I6aFo0e/MSLXvLVBIOLRiQlcczbnCPjUgk9Rw7AlSgzGT+rVLyD4Fw==
-----END CERTIFICATE-----
